(lp1
(idtree_util
dtree
p2
(dp3
S'nodes'
p4
(lp5
(idtree_util
node
p6
(dp7
S'is_word'
p8
I1
sS'finished'
p9
I0
sS'kids'
p10
(lp11
(I11
S'root'
p12
tp13
asS'word'
p14
S'ROOT'
p15
sS'parent'
p16
(lp17
sba(idtree_util
node
p18
(dp19
g8
I1
sg9
I0
sg10
(lp20
(I3
S'pobj'
p21
tp22
asg14
S'In'
p23
sg16
(lp24
(I11
S'prep'
p25
tp26
asba(idtree_util
node
p27
(dp28
g8
I1
sg9
I0
sg10
(lp29
sg14
S'one'
p30
sg16
(lp31
(I3
S'num'
p32
tp33
asba(idtree_util
node
p34
(dp35
g8
I1
sg9
I0
sg10
(lp36
(I2
g32
tp37
a(I4
S'prep'
p38
tp39
asg14
S'part'
p40
sg16
(lp41
(I1
g21
tp42
asba(idtree_util
node
p43
(dp44
g8
I1
sg9
I0
sg10
(lp45
(I6
S'pobj'
p46
tp47
asg14
S'of'
p48
sg16
(lp49
(I3
g38
tp50
asba(idtree_util
node
p51
(dp52
g8
I1
sg9
I0
sg10
(lp53
sg14
S'this'
p54
sg16
(lp55
(I6
S'det'
p56
tp57
asba(idtree_util
node
p58
(dp59
g8
I1
sg9
I0
sg10
(lp60
(I5
g56
tp61
asg14
S'work'
p62
sg16
(lp63
(I4
g46
tp64
asba(idtree_util
node
p65
(dp66
g8
I0
sba(idtree_util
node
p67
(dp68
g8
I1
sg9
I0
sg10
(lp69
(I9
S'cc'
p70
tp71
a(I10
S'conj'
p72
tp73
asg14
S'Nicholas'
p74
sg16
(lp75
(I11
S'nsubj'
p76
tp77
asba(idtree_util
node
p78
(dp79
g8
I1
sg9
I0
sg10
(lp80
sg14
S'and'
p81
sg16
(lp82
(I8
g70
tp83
asba(idtree_util
node
p84
(dp85
g8
I1
sg9
I0
sg10
(lp86
sg14
S'Alison'
p87
sg16
(lp88
(I8
g72
tp89
asba(idtree_util
node
p90
(dp91
g8
I1
sg9
I0
sg10
(lp92
(I1
g25
tp93
a(I8
g76
tp94
a(I14
S'dobj'
p95
tp96
asg14
S'deceive'
p97
sg16
(lp98
(I0
g12
tp99
asba(idtree_util
node
p100
(dp101
g8
I1
sg9
I0
sg10
(lp102
sg14
S'the'
p103
sg16
(lp104
(I14
S'det'
p105
tp106
asba(idtree_util
node
p107
(dp108
g8
I1
sg9
I0
sg10
(lp109
sg14
S'old'
p110
sg16
(lp111
(I14
S'amod'
p112
tp113
asba(idtree_util
node
p114
(dp115
g8
I1
sg9
I0
sg10
(lp116
(I12
g105
tp117
a(I13
g112
tp118
a(I16
S'appos'
p119
tp120
a(I24
S'dep'
p121
tp122
asg14
S'carpenter'
p123
sg16
(lp124
(I11
g95
tp125
asba(idtree_util
node
p126
(dp127
g8
I0
sba(idtree_util
node
p128
(dp129
g8
I1
sg9
I0
sg10
(lp130
sg14
S'John'
p131
sg16
(lp132
(I14
g119
tp133
asba(idtree_util
node
p134
(dp135
g8
I0
sba(idtree_util
node
p136
(dp137
g8
I1
sg9
I0
sg10
(lp138
sg14
S'while'
p139
sg16
(lp140
(I24
S'mark'
p141
tp142
asba(idtree_util
node
p143
(dp144
g8
I1
sg9
I0
sg10
(lp145
(I20
S'pobj'
p146
tp147
asg14
S'in'
p148
sg16
(lp149
(I24
S'prep'
p150
tp151
asba(idtree_util
node
p152
(dp153
g8
I1
sg9
I0
sg10
(lp154
sg14
S'another'
p155
sg16
(lp156
(I19
g146
tp157
asba(idtree_util
node
p158
(dp159
g8
I0
sba(idtree_util
node
p160
(dp161
g8
I1
sg9
I0
sg10
(lp162
sg14
S'a'
sg16
(lp163
(I23
S'det'
p164
tp165
asba(idtree_util
node
p166
(dp167
g8
I1
sg9
I0
sg10
(lp168
(I22
g164
tp169
asg14
S'woman'
p170
sg16
(lp171
(I24
S'nsubj'
p172
tp173
asba(idtree_util
node
p174
(dp175
g8
I1
sg9
I0
sg10
(lp176
(I18
g141
tp177
a(I19
g150
tp178
a(I23
g172
tp179
a(I25
S'prep'
p180
tp181
asg14
S'tells'
p182
sg16
(lp183
(I14
g121
tp184
asba(idtree_util
node
p185
(dp186
g8
I1
sg9
I0
sg10
(lp187
(I27
S'pobj'
p188
tp189
asg14
S'of'
p190
sg16
(lp191
(I24
g180
tp192
asba(idtree_util
node
p193
(dp194
g8
I1
sg9
I0
sg10
(lp195
sg14
S'a'
sg16
(lp196
(I27
S'det'
p197
tp198
asba(idtree_util
node
p199
(dp200
g8
I1
sg9
I0
sg10
(lp201
(I26
g197
tp202
a(I29
S'rcmod'
p203
tp204
asg14
S'knight'
p205
sg16
(lp206
(I25
g188
tp207
asba(idtree_util
node
p208
(dp209
g8
I1
sg9
I0
sg10
(lp210
sg14
S'who'
p211
sg16
(lp212
(I29
S'nsubj'
p213
tp214
asba(idtree_util
node
p215
(dp216
g8
I1
sg9
I0
sg10
(lp217
(I28
g213
tp218
a(I32
S'ccomp'
p219
tp220
asg14
S'learns'
p221
sg16
(lp222
(I27
g203
tp223
asba(idtree_util
node
p224
(dp225
g8
I1
sg9
I0
sg10
(lp226
sg14
S'that'
p227
sg16
(lp228
(I32
S'mark'
p229
tp230
asba(idtree_util
node
p231
(dp232
g8
I1
sg9
I0
sg10
(lp233
sg14
S'women'
p234
sg16
(lp235
(I32
S'nsubj'
p236
tp237
asba(idtree_util
node
p238
(dp239
g8
I1
sg9
I0
sg10
(lp240
(I30
g229
tp241
a(I31
g236
tp242
a(I33
S'dobj'
p243
tp244
asg14
S'desire'
p245
sg16
(lp246
(I29
g219
tp247
asba(idtree_util
node
p248
(dp249
g8
I1
sg9
I0
sg10
(lp250
sg14
S'power'
p251
sg16
(lp252
(I32
g243
tp253
asbasS'ans'
p254
S'canterbury_tales'
p255
sba(idtree_util
dtree
p256
(dp257
g4
(lp258
(idtree_util
node
p259
(dp260
g8
I1
sg9
I0
sg10
(lp261
(I8
S'root'
p262
tp263
asg14
S'ROOT'
p264
sg16
(lp265
sba(idtree_util
node
p266
(dp267
g8
I1
sg9
I0
sg10
(lp268
(I2
S'pobj'
p269
tp270
asg14
S'In'
p271
sg16
(lp272
(I8
S'prep'
p273
tp274
asba(idtree_util
node
p275
(dp276
g8
I1
sg9
I0
sg10
(lp277
(I3
S'prep'
p278
tp279
asg14
S'another'
p280
sg16
(lp281
(I1
g269
tp282
asba(idtree_util
node
p283
(dp284
g8
I1
sg9
I0
sg10
(lp285
(I5
S'pobj'
p286
tp287
asg14
S'of'
p288
sg16
(lp289
(I2
g278
tp290
asba(idtree_util
node
p291
(dp292
g8
I1
sg9
I0
sg10
(lp293
sg14
S'his'
p294
sg16
(lp295
(I5
S'poss'
p296
tp297
asba(idtree_util
node
p298
(dp299
g8
I1
sg9
I0
sg10
(lp300
(I4
g296
tp301
asg14
S'plays'
p302
sg16
(lp303
(I3
g286
tp304
asba(idtree_util
node
p305
(dp306
g8
I0
sba(idtree_util
node
p307
(dp308
g8
I1
sg9
I0
sg10
(lp309
sg14
S'Colonel_Pickering'
p310
sg16
(lp311
(I8
S'nsubj'
p312
tp313
asba(idtree_util
node
p314
(dp315
g8
I1
sg9
I0
sg10
(lp316
(I1
g273
tp317
a(I7
g312
tp318
a(I17
S'ccomp'
p319
tp320
asg14
S'wagers'
p321
sg16
(lp322
(I0
g262
tp323
asba(idtree_util
node
p324
(dp325
g8
I1
sg9
I0
sg10
(lp326
sg14
S'that'
p327
sg16
(lp328
(I17
S'mark'
p329
tp330
asba(idtree_util
node
p331
(dp332
g8
I1
sg9
I0
sg10
(lp333
sg14
S'a'
sg16
(lp334
(I13
S'det'
p335
tp336
asba(idtree_util
node
p337
(dp338
g8
I1
sg9
I0
sg10
(lp339
sg14
S'Cockney'
p340
sg16
(lp341
(I13
S'nn'
p342
tp343
asba(idtree_util
node
p344
(dp345
g8
I1
sg9
I0
sg10
(lp346
sg14
S'flower'
p347
sg16
(lp348
(I13
S'nn'
p349
tp350
asba(idtree_util
node
p351
(dp352
g8
I1
sg9
I0
sg10
(lp353
(I10
g335
tp354
a(I11
g342
tp355
a(I12
g349
tp356
asg14
S'girl'
p357
sg16
(lp358
(I17
S'nsubjpass'
p359
tp360
asba(idtree_util
node
p361
(dp362
g8
I1
sg9
I0
sg10
(lp363
sg14
S'ca'
p364
sg16
(lp365
(I17
S'aux'
p366
tp367
asba(idtree_util
node
p368
(dp369
g8
I1
sg9
I0
sg10
(lp370
sg14
S"n't"
p371
sg16
(lp372
(I17
S'neg'
p373
tp374
asba(idtree_util
node
p375
(dp376
g8
I1
sg9
I0
sg10
(lp377
sg14
S'be'
p378
sg16
(lp379
(I17
S'auxpass'
p380
tp381
asba(idtree_util
node
p382
(dp383
g8
I1
sg9
I0
sg10
(lp384
(I9
g329
tp385
a(I13
g359
tp386
a(I14
g366
tp387
a(I15
g373
tp388
a(I16
g380
tp389
a(I19
S'xcomp'
p390
tp391
asg14
S'taught'
p392
sg16
(lp393
(I8
g319
tp394
asba(idtree_util
node
p395
(dp396
g8
I1
sg9
I0
sg10
(lp397
sg14
S'to'
p398
sg16
(lp399
(I19
S'aux'
p400
tp401
asba(idtree_util
node
p402
(dp403
g8
I1
sg9
I0
sg10
(lp404
(I18
g400
tp405
a(I20
S'prep'
p406
tp407
a(I23
S'prep'
p408
tp409
asg14
S'speak'
p410
sg16
(lp411
(I17
g390
tp412
asba(idtree_util
node
p413
(dp414
g8
I1
sg9
I0
sg10
(lp415
(I22
S'pobj'
p416
tp417
asg14
S'like'
p418
sg16
(lp419
(I19
g406
tp420
asba(idtree_util
node
p421
(dp422
g8
I1
sg9
I0
sg10
(lp423
sg14
S'a'
sg16
(lp424
(I22
S'det'
p425
tp426
asba(idtree_util
node
p427
(dp428
g8
I1
sg9
I0
sg10
(lp429
(I21
g425
tp430
asg14
S'lady'
p431
sg16
(lp432
(I20
g416
tp433
asba(idtree_util
node
p434
(dp435
g8
I1
sg9
I0
sg10
(lp436
(I24
S'pobj'
p437
tp438
asg14
S'by'
p439
sg16
(lp440
(I19
g408
tp441
asba(idtree_util
node
p442
(dp443
g8
I1
sg9
I0
sg10
(lp444
sg14
S'Henry_Higgins'
p445
sg16
(lp446
(I23
g437
tp447
asbasg254
S'george_bernard_shaw'
p448
sba(idtree_util
dtree
p449
(dp450
g4
(lp451
(idtree_util
node
p452
(dp453
g8
I1
sg9
I0
sg10
(lp454
(I7
S'root'
p455
tp456
asg14
S'ROOT'
p457
sg16
(lp458
sba(idtree_util
node
p459
(dp460
g8
I1
sg9
I0
sg10
(lp461
(I4
S'pobj'
p462
tp463
asg14
S'In'
p464
sg16
(lp465
(I7
S'prep'
p466
tp467
asba(idtree_util
node
p468
(dp469
g8
I1
sg9
I0
sg10
(lp470
sg14
S'its'
p471
sg16
(lp472
(I4
S'poss'
p473
tp474
asba(idtree_util
node
p475
(dp476
g8
I1
sg9
I0
sg10
(lp477
sg14
S'third'
p478
sg16
(lp479
(I4
S'amod'
p480
tp481
asba(idtree_util
node
p482
(dp483
g8
I1
sg9
I0
sg10
(lp484
(I2
g473
tp485
a(I3
g480
tp486
asg14
S'section'
p487
sg16
(lp488
(I1
g462
tp489
asba(idtree_util
node
p490
(dp491
g8
I0
sba(idtree_util
node
p492
(dp493
g8
I1
sg9
I0
sg10
(lp494
sg14
S'Lily_Briscoe'
p495
sg16
(lp496
(I7
S'nsubj'
p497
tp498
asba(idtree_util
node
p499
(dp500
g8
I1
sg9
I0
sg10
(lp501
(I1
g466
tp502
a(I6
g497
tp503
a(I9
S'dobj'
p504
tp505
a(I10
S'prep'
p506
tp507
asg14
S'finishes'
p508
sg16
(lp509
(I0
g455
tp510
asba(idtree_util
node
p511
(dp512
g8
I1
sg9
I0
sg10
(lp513
sg14
S'a'
sg16
(lp514
(I9
S'det'
p515
tp516
asba(idtree_util
node
p517
(dp518
g8
I1
sg9
I0
sg10
(lp519
(I8
g515
tp520
asg14
S'portrait'
p521
sg16
(lp522
(I7
g504
tp523
asba(idtree_util
node
p524
(dp525
g8
I1
sg9
I0
sg10
(lp526
(I11
S'pcomp'
p527
tp528
asg14
S'before'
p529
sg16
(lp530
(I7
g506
tp531
asba(idtree_util
node
p532
(dp533
g8
I1
sg9
I0
sg10
(lp534
(I12
S'prep'
p535
tp536
asg14
S'journeying'
p537
sg16
(lp538
(I10
g527
tp539
asba(idtree_util
node
p540
(dp541
g8
I1
sg9
I0
sg10
(lp542
(I15
S'pobj'
p543
tp544
asg14
S'to'
p545
sg16
(lp546
(I11
g535
tp547
asba(idtree_util
node
p548
(dp549
g8
I1
sg9
I0
sg10
(lp550
sg14
S'the'
p551
sg16
(lp552
(I15
S'det'
p553
tp554
asba(idtree_util
node
p555
(dp556
g8
I1
sg9
I0
sg10
(lp557
sg14
S'title'
p558
sg16
(lp559
(I15
S'nn'
p560
tp561
asba(idtree_util
node
p562
(dp563
g8
I1
sg9
I0
sg10
(lp564
(I13
g553
tp565
a(I14
g560
tp566
asg14
S'structure'
p567
sg16
(lp568
(I12
g543
tp569
asbasg254
S'to_the_lighthouse'
p570
sba(idtree_util
dtree
p571
(dp572
g4
(lp573
(idtree_util
node
p574
(dp575
g8
I1
sg9
I0
sg10
(lp576
(I10
S'root'
p577
tp578
asg14
S'ROOT'
p579
sg16
(lp580
sba(idtree_util
node
p581
(dp582
g8
I1
sg9
I0
sg10
(lp583
(I2
S'pcomp'
p584
tp585
asg14
S'After'
p586
sg16
(lp587
(I10
S'prep'
p588
tp589
asba(idtree_util
node
p590
(dp591
g8
I1
sg9
I0
sg10
(lp592
(I3
S'prep'
p593
tp594
asg14
S'living'
p595
sg16
(lp596
(I1
g584
tp597
asba(idtree_util
node
p598
(dp599
g8
I1
sg9
I0
sg10
(lp600
(I6
S'pobj'
p601
tp602
asg14
S'with'
p603
sg16
(lp604
(I2
g593
tp605
asba(idtree_util
node
p606
(dp607
g8
I1
sg9
I0
sg10
(lp608
sg14
S'her'
p609
sg16
(lp610
(I6
S'poss'
p611
tp612
asba(idtree_util
node
p613
(dp614
g8
I1
sg9
I0
sg10
(lp615
sg14
S'cousin'
p616
sg16
(lp617
(I6
S'nn'
p618
tp619
asba(idtree_util
node
p620
(dp621
g8
I1
sg9
I0
sg10
(lp622
(I4
g611
tp623
a(I5
g618
tp624
asg14
S'St_John_Rivers'
p625
sg16
(lp626
(I3
g601
tp627
asba(idtree_util
node
p628
(dp629
g8
I0
sba(idtree_util
node
p630
(dp631
g8
I1
sg9
I0
sg10
(lp632
sg14
S'this'
p633
sg16
(lp634
(I9
S'det'
p635
tp636
asba(idtree_util
node
p637
(dp638
g8
I1
sg9
I0
sg10
(lp639
(I8
g635
tp640
asg14
S'character'
p641
sg16
(lp642
(I10
S'nsubj'
p643
tp644
asba(idtree_util
node
p645
(dp646
g8
I1
sg9
I0
sg10
(lp647
(I1
g588
tp648
a(I9
g643
tp649
a(I12
S'xcomp'
p650
tp651
asg14
S'returns'
p652
sg16
(lp653
(I0
g577
tp654
asba(idtree_util
node
p655
(dp656
g8
I1
sg9
I0
sg10
(lp657
sg14
S'to'
p658
sg16
(lp659
(I12
S'aux'
p660
tp661
asba(idtree_util
node
p662
(dp663
g8
I1
sg9
I0
sg10
(lp664
(I11
g660
tp665
a(I14
S'xcomp'
p666
tp667
asg14
S'Thornfield'
p668
sg16
(lp669
(I10
g650
tp670
asba(idtree_util
node
p671
(dp672
g8
I1
sg9
I0
sg10
(lp673
sg14
S'to'
p674
sg16
(lp675
(I14
S'aux'
p676
tp677
asba(idtree_util
node
p678
(dp679
g8
I1
sg9
I0
sg10
(lp680
(I13
g676
tp681
a(I17
S'dobj'
p682
tp683
asg14
S'marry'
p684
sg16
(lp685
(I12
g666
tp686
asba(idtree_util
node
p687
(dp688
g8
I1
sg9
I0
sg10
(lp689
sg14
S'Mr.'
p690
sg16
(lp691
(I17
S'nn'
p692
tp693
asba(idtree_util
node
p694
(dp695
g8
I1
sg9
I0
sg10
(lp696
sg14
S'_'
sg16
(lp697
(I17
S'nn'
p698
tp699
asba(idtree_util
node
p700
(dp701
g8
I1
sg9
I0
sg10
(lp702
(I15
g692
tp703
a(I16
g698
tp704
asg14
S'Rochester'
p705
sg16
(lp706
(I14
g682
tp707
asbasg254
S'jane_eyre'
p708
sba(idtree_util
dtree
p709
(dp710
g4
(lp711
(idtree_util
node
p712
(dp713
g8
I1
sg9
I0
sg10
(lp714
(I4
S'root'
p715
tp716
asg14
S'ROOT'
p717
sg16
(lp718
sba(idtree_util
node
p719
(dp720
g8
I1
sg9
I0
sg10
(lp721
sg14
S'This'
p722
sg16
(lp723
(I2
S'det'
p724
tp725
asba(idtree_util
node
p726
(dp727
g8
I1
sg9
I0
sg10
(lp728
(I1
g724
tp729
asg14
S'character'
p730
sg16
(lp731
(I4
S'nsubjpass'
p732
tp733
asba(idtree_util
node
p734
(dp735
g8
I1
sg9
I0
sg10
(lp736
sg14
S'is'
p737
sg16
(lp738
(I4
S'auxpass'
p739
tp740
asba(idtree_util
node
p741
(dp742
g8
I1
sg9
I0
sg10
(lp743
(I2
g732
tp744
a(I3
g739
tp745
a(I5
S'prep'
p746
tp747
asg14
S'reimagined'
p748
sg16
(lp749
(I0
g715
tp750
asba(idtree_util
node
p751
(dp752
g8
I1
sg9
I0
sg10
(lp753
(I7
S'pobj'
p754
tp755
asg14
S'with'
p756
sg16
(lp757
(I4
g746
tp758
asba(idtree_util
node
p759
(dp760
g8
I1
sg9
I0
sg10
(lp761
sg14
S'heavy'
p762
sg16
(lp763
(I7
S'amod'
p764
tp765
asba(idtree_util
node
p766
(dp767
g8
I1
sg9
I0
sg10
(lp768
(I6
g764
tp769
a(I8
S'prep'
p770
tp771
asg14
S'dreadlocks'
p772
sg16
(lp773
(I5
g754
tp774
asba(idtree_util
node
p775
(dp776
g8
I1
sg9
I0
sg10
(lp777
(I11
S'pobj'
p778
tp779
asg14
S'in'
p780
sg16
(lp781
(I7
g770
tp782
asba(idtree_util
node
p783
(dp784
g8
I1
sg9
I0
sg10
(lp785
(I10
S'possessive'
p786
tp787
asg14
S'John_Edgar_Wideman'
p788
sg16
(lp789
(I11
S'poss'
p790
tp791
asba(idtree_util
node
p792
(dp793
g8
I1
sg9
I0
sg10
(lp794
sg14
S"'s"
p795
sg16
(lp796
(I9
g786
tp797
asba(idtree_util
node
p798
(dp799
g8
I1
sg9
I0
sg10
(lp800
(I9
g790
tp801
asg14
S'Philadelphia_Fire'
p802
sg16
(lp803
(I8
g778
tp804
asbasg254
S'caliban'
p805
sba(idtree_util
dtree
p806
(dp807
g4
(lp808
(idtree_util
node
p809
(dp810
g8
I1
sg9
I0
sg10
(lp811
(I6
S'root'
p812
tp813
asg14
S'ROOT'
p814
sg16
(lp815
sba(idtree_util
node
p816
(dp817
g8
I1
sg9
I0
sg10
(lp818
sg14
S'One'
p819
sg16
(lp820
(I2
S'num'
p821
tp822
asba(idtree_util
node
p823
(dp824
g8
I1
sg9
I0
sg10
(lp825
(I1
g821
tp826
a(I3
S'prep'
p827
tp828
asg14
S'poem'
p829
sg16
(lp830
(I6
S'nsubj'
p831
tp832
asba(idtree_util
node
p833
(dp834
g8
I1
sg9
I0
sg10
(lp835
(I5
S'pobj'
p836
tp837
asg14
S'by'
p838
sg16
(lp839
(I2
g827
tp840
asba(idtree_util
node
p841
(dp842
g8
I1
sg9
I0
sg10
(lp843
sg14
S'this'
p844
sg16
(lp845
(I5
S'det'
p846
tp847
asba(idtree_util
node
p848
(dp849
g8
I1
sg9
I0
sg10
(lp850
(I4
g846
tp851
asg14
S'author'
p852
sg16
(lp853
(I3
g836
tp854
asba(idtree_util
node
p855
(dp856
g8
I1
sg9
I0
sg10
(lp857
(I2
g831
tp858
a(I11
S'dobj'
p859
tp860
a(I14
S'cc'
p861
tp862
a(I18
S'conj'
p863
tp864
asg14
S'begins'
p865
sg16
(lp866
(I0
g812
tp867
asba(idtree_util
node
p868
(dp869
g8
I0
sba(idtree_util
node
p870
(dp871
g8
I1
sg9
I0
sg10
(lp872
sg14
S'Hence'
p873
sg16
(lp874
(I11
S'amod'
p875
tp876
asba(idtree_util
node
p877
(dp878
g8
I1
sg9
I0
sg10
(lp879
sg14
S'vain'
p880
sg16
(lp881
(I11
S'amod'
p882
tp883
asba(idtree_util
node
p884
(dp885
g8
I1
sg9
I0
sg10
(lp886
sg14
S'deluding'
p887
sg16
(lp888
(I11
S'nn'
p889
tp890
asba(idtree_util
node
p891
(dp892
g8
I1
sg9
I0
sg10
(lp893
(I8
g875
tp894
a(I9
g882
tp895
a(I10
g889
tp896
asg14
S'joys'
p897
sg16
(lp898
(I6
g859
tp899
asba(idtree_util
node
p900
(dp901
g8
I0
sba(idtree_util
node
p902
(dp903
g8
I0
sba(idtree_util
node
p904
(dp905
g8
I1
sg9
I0
sg10
(lp906
sg14
S'and'
p907
sg16
(lp908
(I6
g861
tp909
asba(idtree_util
node
p910
(dp911
g8
I1
sg9
I0
sg10
(lp912
sg14
S'another'
p913
sg16
(lp914
(I18
S'nsubj'
p915
tp916
asba(idtree_util
node
p917
(dp918
g8
I1
sg9
I0
sg10
(lp919
sg14
S'is'
p920
sg16
(lp921
(I18
S'cop'
p922
tp923
asba(idtree_util
node
p924
(dp925
g8
I1
sg9
I0
sg10
(lp926
sg14
S'an'
p927
sg16
(lp928
(I18
S'det'
p929
tp930
asba(idtree_util
node
p931
(dp932
g8
I1
sg9
I0
sg10
(lp933
(I15
g915
tp934
a(I16
g922
tp935
a(I17
g929
tp936
a(I19
S'prep'
p937
tp938
asg14
S'elegy'
p939
sg16
(lp940
(I6
g863
tp941
asba(idtree_util
node
p942
(dp943
g8
I1
sg9
I0
sg10
(lp944
(I21
S'pobj'
p945
tp946
asg14
S'on'
p947
sg16
(lp948
(I18
g937
tp949
asba(idtree_util
node
p950
(dp951
g8
I1
sg9
I0
sg10
(lp952
sg14
S'the'
p953
sg16
(lp954
(I21
S'det'
p955
tp956
asba(idtree_util
node
p957
(dp958
g8
I1
sg9
I0
sg10
(lp959
(I20
g955
tp960
a(I22
S'prep'
p961
tp962
asg14
S'death'
p963
sg16
(lp964
(I19
g945
tp965
asba(idtree_util
node
p966
(dp967
g8
I1
sg9
I0
sg10
(lp968
(I23
S'pobj'
p969
tp970
asg14
S'of'
p971
sg16
(lp972
(I21
g961
tp973
asba(idtree_util
node
p974
(dp975
g8
I1
sg9
I0
sg10
(lp976
sg14
S'Edward_King'
p977
sg16
(lp978
(I22
g969
tp979
asbasg254
S'john_milton'
p980
sba(idtree_util
dtree
p981
(dp982
g4
(lp983
(idtree_util
node
p984
(dp985
g8
I1
sg9
I0
sg10
(lp986
(I3
S'root'
p987
tp988
asg14
S'ROOT'
p989
sg16
(lp990
sba(idtree_util
node
p991
(dp992
g8
I1
sg9
I0
sg10
(lp993
sg14
S'This'
p994
sg16
(lp995
(I2
S'det'
p996
tp997
asba(idtree_util
node
p998
(dp999
g8
I1
sg9
I0
sg10
(lp1000
(I1
g996
tp1001
asg14
S'author'
p1002
sg16
(lp1003
(I3
S'nsubj'
p1004
tp1005
asba(idtree_util
node
p1006
(dp1007
g8
I1
sg9
I0
sg10
(lp1008
(I2
g1004
tp1009
a(I4
S'dobj'
p1010
tp1011
a(I5
S'cc'
p1012
tp1013
a(I6
S'conj'
p1014
tp1015
asg14
S'created'
p1016
sg16
(lp1017
(I0
g987
tp1018
asba(idtree_util
node
p1019
(dp1020
g8
I1
sg9
I0
sg10
(lp1021
sg14
S'Oleg_Kostoglotov'
p1022
sg16
(lp1023
(I3
g1010
tp1024
asba(idtree_util
node
p1025
(dp1026
g8
I1
sg9
I0
sg10
(lp1027
sg14
S'and'
p1028
sg16
(lp1029
(I3
g1012
tp1030
asba(idtree_util
node
p1031
(dp1032
g8
I1
sg9
I0
sg10
(lp1033
(I8
S'dobj'
p1034
tp1035
asg14
S'wrote'
p1036
sg16
(lp1037
(I3
g1014
tp1038
asba(idtree_util
node
p1039
(dp1040
g8
I1
sg9
I0
sg10
(lp1041
sg14
S'a'
sg16
(lp1042
(I8
S'det'
p1043
tp1044
asba(idtree_util
node
p1045
(dp1046
g8
I1
sg9
I0
sg10
(lp1047
(I7
g1043
tp1048
a(I13
S'rcmod'
p1049
tp1050
asg14
S'novel'
p1051
sg16
(lp1052
(I6
g1034
tp1053
asba(idtree_util
node
p1054
(dp1055
g8
I1
sg9
I0
sg10
(lp1056
(I10
S'pobj'
p1057
tp1058
asg14
S'in'
p1059
sg16
(lp1060
(I13
S'prep'
p1061
tp1062
asba(idtree_util
node
p1063
(dp1064
g8
I1
sg9
I0
sg10
(lp1065
sg14
S'which'
p1066
sg16
(lp1067
(I9
g1057
tp1068
asba(idtree_util
node
p1069
(dp1070
g8
I1
sg9
I0
sg10
(lp1071
sg14
S'a'
sg16
(lp1072
(I12
S'det'
p1073
tp1074
asba(idtree_util
node
p1075
(dp1076
g8
I1
sg9
I0
sg10
(lp1077
(I11
g1073
tp1078
asg14
S'decree'
p1079
sg16
(lp1080
(I13
S'nsubj'
p1081
tp1082
asba(idtree_util
node
p1083
(dp1084
g8
I1
sg9
I0
sg10
(lp1085
(I9
g1061
tp1086
a(I12
g1081
tp1087
a(I22
S'ccomp'
p1088
tp1089
asg14
S'stated'
p1090
sg16
(lp1091
(I8
g1049
tp1092
asba(idtree_util
node
p1093
(dp1094
g8
I1
sg9
I0
sg10
(lp1095
sg14
S'that'
p1096
sg16
(lp1097
(I22
S'mark'
p1098
tp1099
asba(idtree_util
node
p1100
(dp1101
g8
I1
sg9
I0
sg10
(lp1102
sg14
S'any'
p1103
sg16
(lp1104
(I16
S'det'
p1105
tp1106
asba(idtree_util
node
p1107
(dp1108
g8
I1
sg9
I0
sg10
(lp1109
(I15
g1105
tp1110
asg14
S'temperature'
p1111
sg16
(lp1112
(I17
S'npadvmod'
p1113
tp1114
asba(idtree_util
node
p1115
(dp1116
g8
I1
sg9
I0
sg10
(lp1117
(I16
g1113
tp1118
asg14
S'lower'
p1119
sg16
(lp1120
(I18
S'advmod'
p1121
tp1122
asba(idtree_util
node
p1123
(dp1124
g8
I1
sg9
I0
sg10
(lp1125
(I17
g1121
tp1126
a(I19
S'pobj'
p1127
tp1128
asg14
S'than'
p1129
sg16
(lp1130
(I22
S'prep'
p1131
tp1132
asba(idtree_util
node
p1133
(dp1134
g8
I1
sg9
I0
sg10
(lp1135
sg14
S'-41'
p1136
sg16
(lp1137
(I18
g1127
tp1138
asba(idtree_util
node
p1139
(dp1140
g8
I1
sg9
I0
sg10
(lp1141
sg14
S'\xc2\xb0'
p1142
sg16
(lp1143
(I21
S'nn'
p1144
tp1145
asba(idtree_util
node
p1146
(dp1147
g8
I1
sg9
I0
sg10
(lp1148
(I20
g1144
tp1149
asg14
S'C'
sg16
(lp1150
(I22
S'nsubj'
p1151
tp1152
asba(idtree_util
node
p1153
(dp1154
g8
I1
sg9
I0
sg10
(lp1155
(I14
g1098
tp1156
a(I18
g1131
tp1157
a(I21
g1151
tp1158
a(I28
S'ccomp'
p1159
tp1160
asg14
S'meant'
p1161
sg16
(lp1162
(I13
g1088
tp1163
asba(idtree_util
node
p1164
(dp1165
g8
I1
sg9
I0
sg10
(lp1166
sg14
S'that'
p1167
sg16
(lp1168
(I28
S'mark'
p1169
tp1170
asba(idtree_util
node
p1171
(dp1172
g8
I1
sg9
I0
sg10
(lp1173
sg14
S'the'
p1174
sg16
(lp1175
(I26
S'det'
p1176
tp1177
asba(idtree_util
node
p1178
(dp1179
g8
I1
sg9
I0
sg10
(lp1180
sg14
S'title'
p1181
sg16
(lp1182
(I26
S'nn'
p1183
tp1184
asba(idtree_util
node
p1185
(dp1186
g8
I1
sg9
I0
sg10
(lp1187
(I24
g1176
tp1188
a(I25
g1183
tp1189
asg14
S'character'
p1190
sg16
(lp1191
(I28
S'nsubj'
p1192
tp1193
asba(idtree_util
node
p1194
(dp1195
g8
I1
sg9
I0
sg10
(lp1196
sg14
S'could'
p1197
sg16
(lp1198
(I28
S'aux'
p1199
tp1200
asba(idtree_util
node
p1201
(dp1202
g8
I1
sg9
I0
sg10
(lp1203
(I23
g1169
tp1204
a(I26
g1192
tp1205
a(I27
g1199
tp1206
asg14
S'relax'
p1207
sg16
(lp1208
(I22
g1159
tp1209
asbasg254
S'aleksandr_solzhenitsyn'
p1210
sba(idtree_util
dtree
p1211
(dp1212
g4
(lp1213
(idtree_util
node
p1214
(dp1215
g8
I1
sg9
I0
sg10
(lp1216
(I6
S'root'
p1217
tp1218
asg14
S'ROOT'
p1219
sg16
(lp1220
sba(idtree_util
node
p1221
(dp1222
g8
I1
sg9
I0
sg10
(lp1223
sg14
S'One'
p1224
sg16
(lp1225
(I2
S'num'
p1226
tp1227
asba(idtree_util
node
p1228
(dp1229
g8
I1
sg9
I0
sg10
(lp1230
(I1
g1226
tp1231
a(I3
S'prep'
p1232
tp1233
asg14
S'author'
p1234
sg16
(lp1235
(I6
S'nsubj'
p1236
tp1237
asba(idtree_util
node
p1238
(dp1239
g8
I1
sg9
I0
sg10
(lp1240
(I5
S'pobj'
p1241
tp1242
asg14
S'from'
p1243
sg16
(lp1244
(I2
g1232
tp1245
asba(idtree_util
node
p1246
(dp1247
g8
I1
sg9
I0
sg10
(lp1248
sg14
S'this'
p1249
sg16
(lp1250
(I5
S'det'
p1251
tp1252
asba(idtree_util
node
p1253
(dp1254
g8
I1
sg9
I0
sg10
(lp1255
(I4
g1251
tp1256
asg14
S'country'
p1257
sg16
(lp1258
(I3
g1241
tp1259
asba(idtree_util
node
p1260
(dp1261
g8
I1
sg9
I0
sg10
(lp1262
(I2
g1236
tp1263
a(I8
S'dobj'
p1264
tp1265
a(I9
S'prep'
p1266
tp1267
a(I11
S'prep'
p1268
tp1269
asg14
S'wrote'
p1270
sg16
(lp1271
(I0
g1217
tp1272
asba(idtree_util
node
p1273
(dp1274
g8
I1
sg9
I0
sg10
(lp1275
sg14
S'a'
sg16
(lp1276
(I8
S'det'
p1277
tp1278
asba(idtree_util
node
p1279
(dp1280
g8
I1
sg9
I0
sg10
(lp1281
(I7
g1277
tp1282
asg14
S'memoir'
p1283
sg16
(lp1284
(I6
g1264
tp1285
asba(idtree_util
node
p1286
(dp1287
g8
I1
sg9
I0
sg10
(lp1288
(I10
S'pobj'
p1289
tp1290
asg14
S'about'
p1291
sg16
(lp1292
(I6
g1266
tp1293
asba(idtree_util
node
p1294
(dp1295
g8
I1
sg9
I0
sg10
(lp1296
sg14
S'clashes'
p1297
sg16
(lp1298
(I9
g1289
tp1299
asba(idtree_util
node
p1300
(dp1301
g8
I1
sg9
I0
sg10
(lp1302
(I12
S'pobj'
p1303
tp1304
asg14
S'for'
p1305
sg16
(lp1306
(I6
g1268
tp1307
asba(idtree_util
node
p1308
(dp1309
g8
I1
sg9
I0
sg10
(lp1310
(I13
S'partmod'
p1311
tp1312
asg14
S'oil'
p1313
sg16
(lp1314
(I11
g1303
tp1315
asba(idtree_util
node
p1316
(dp1317
g8
I1
sg9
I0
sg10
(lp1318
(I14
S'dobj'
p1319
tp1320
asg14
S'titled'
p1321
sg16
(lp1322
(I12
g1311
tp1323
asba(idtree_util
node
p1324
(dp1325
g8
I1
sg9
I0
sg10
(lp1326
(I15
S'cc'
p1327
tp1328
a(I18
S'conj'
p1329
tp1330
asg14
S'On_a_Darkling_Plain'
p1331
sg16
(lp1332
(I13
g1319
tp1333
asba(idtree_util
node
p1334
(dp1335
g8
I1
sg9
I0
sg10
(lp1336
sg14
S'and'
p1337
sg16
(lp1338
(I14
g1327
tp1339
asba(idtree_util
node
p1340
(dp1341
g8
I1
sg9
I0
sg10
(lp1342
sg14
S'an'
p1343
sg16
(lp1344
(I18
S'det'
p1345
tp1346
asba(idtree_util
node
p1347
(dp1348
g8
I1
sg9
I0
sg10
(lp1349
sg14
S'anti-war'
p1350
sg16
(lp1351
(I18
S'amod'
p1352
tp1353
asba(idtree_util
node
p1354
(dp1355
g8
I1
sg9
I0
sg10
(lp1356
(I16
g1345
tp1357
a(I17
g1352
tp1358
a(I21
S'rcmod'
p1359
tp1360
asg14
S'novel'
p1361
sg16
(lp1362
(I14
g1329
tp1363
asba(idtree_util
node
p1364
(dp1365
g8
I1
sg9
I0
sg10
(lp1366
sg14
S'whose'
p1367
sg16
(lp1368
(I20
S'poss'
p1369
tp1370
asba(idtree_util
node
p1371
(dp1372
g8
I1
sg9
I0
sg10
(lp1373
(I19
g1369
tp1374
asg14
S'narrator'
p1375
sg16
(lp1376
(I21
S'nsubj'
p1377
tp1378
asba(idtree_util
node
p1379
(dp1380
g8
I1
sg9
I0
sg10
(lp1381
(I20
g1377
tp1382
a(I26
S'xcomp'
p1383
tp1384
asg14
S'wanted'
p1385
sg16
(lp1386
(I18
g1359
tp1387
asba(idtree_util
node
p1388
(dp1389
g8
I1
sg9
I0
sg10
(lp1390
sg14
S'to'
p1391
sg16
(lp1392
(I26
S'aux'
p1393
tp1394
asba(idtree_util
node
p1395
(dp1396
g8
I1
sg9
I0
sg10
(lp1397
sg14
S'be'
p1398
sg16
(lp1399
(I26
S'cop'
p1400
tp1401
asba(idtree_util
node
p1402
(dp1403
g8
I1
sg9
I0
sg10
(lp1404
sg14
S'a'
sg16
(lp1405
(I26
S'det'
p1406
tp1407
asba(idtree_util
node
p1408
(dp1409
g8
I0
sba(idtree_util
node
p1410
(dp1411
g8
I1
sg9
I0
sg10
(lp1412
(I22
g1393
tp1413
a(I23
g1400
tp1414
a(I24
g1406
tp1415
a(I34
S'dep'
p1416
tp1417
asg14
S'soza'
p1418
sg16
(lp1419
(I21
g1383
tp1420
asba(idtree_util
node
p1421
(dp1422
g8
I0
sba(idtree_util
node
p1423
(dp1424
g8
I0
sba(idtree_util
node
p1425
(dp1426
g8
I1
sg9
I0
sg10
(lp1427
sg14
S'a'
sg16
(lp1428
(I34
S'det'
p1429
tp1430
asba(idtree_util
node
p1431
(dp1432
g8
I0
sba(idtree_util
node
p1433
(dp1434
g8
I1
sg9
I0
sg10
(lp1435
sg14
S'rotten'
p1436
sg16
(lp1437
(I34
S'nn'
p1438
tp1439
asba(idtree_util
node
p1440
(dp1441
g8
I1
sg9
I0
sg10
(lp1442
sg14
S'English'
p1443
sg16
(lp1444
(I34
S'nn'
p1445
tp1446
asba(idtree_util
node
p1447
(dp1448
g8
I0
sba(idtree_util
node
p1449
(dp1450
g8
I1
sg9
I0
sg10
(lp1451
(I29
g1429
tp1452
a(I31
g1438
tp1453
a(I32
g1445
tp1454
asg14
S'word'
p1455
sg16
(lp1456
(I26
g1416
tp1457
asbasg254
S'nigeria'
p1458
sba(idtree_util
dtree
p1459
(dp1460
g4
(lp1461
(idtree_util
node
p1462
(dp1463
g8
I1
sg9
I0
sg10
(lp1464
(I2
S'root'
p1465
tp1466
asg14
S'ROOT'
p1467
sg16
(lp1468
sba(idtree_util
node
p1469
(dp1470
g8
I1
sg9
I0
sg10
(lp1471
sg14
S'It'
p1472
sg16
(lp1473
(I2
S'nsubj'
p1474
tp1475
asba(idtree_util
node
p1476
(dp1477
g8
I1
sg9
I0
sg10
(lp1478
(I1
g1474
tp1479
a(I7
S'xcomp'
p1480
tp1481
a(I17
S'cc'
p1482
tp1483
a(I18
S'conj'
p1484
tp1485
asg14
S'asserts'
p1486
sg16
(lp1487
(I0
g1465
tp1488
asba(idtree_util
node
p1489
(dp1490
g8
I0
sba(idtree_util
node
p1491
(dp1492
g8
I1
sg9
I0
sg10
(lp1493
sg14
S'theirs'
p1494
sg16
(lp1495
(I7
S'nsubj'
p1496
tp1497
asba(idtree_util
node
p1498
(dp1499
g8
I1
sg9
I0
sg10
(lp1500
sg14
S'not'
p1501
sg16
(lp1502
(I7
S'neg'
p1503
tp1504
asba(idtree_util
node
p1505
(dp1506
g8
I1
sg9
I0
sg10
(lp1507
sg14
S'to'
p1508
sg16
(lp1509
(I7
S'aux'
p1510
tp1511
asba(idtree_util
node
p1512
(dp1513
g8
I1
sg9
I0
sg10
(lp1514
(I4
g1496
tp1515
a(I5
g1503
tp1516
a(I6
g1510
tp1517
a(I8
S'ccomp'
p1518
tp1519
asg14
S'make'
p1520
sg16
(lp1521
(I2
g1480
tp1522
asba(idtree_util
node
p1523
(dp1524
g8
I1
sg9
I0
sg10
(lp1525
(I13
S'xcomp'
p1526
tp1527
asg14
S'reply'
p1528
sg16
(lp1529
(I7
g1518
tp1530
asba(idtree_util
node
p1531
(dp1532
g8
I0
sba(idtree_util
node
p1533
(dp1534
g8
I1
sg9
I0
sg10
(lp1535
sg14
S'theirs'
p1536
sg16
(lp1537
(I13
S'nsubj'
p1538
tp1539
asba(idtree_util
node
p1540
(dp1541
g8
I1
sg9
I0
sg10
(lp1542
sg14
S'not'
p1543
sg16
(lp1544
(I13
S'neg'
p1545
tp1546
asba(idtree_util
node
p1547
(dp1548
g8
I1
sg9
I0
sg10
(lp1549
sg14
S'to'
p1550
sg16
(lp1551
(I13
S'aux'
p1552
tp1553
asba(idtree_util
node
p1554
(dp1555
g8
I1
sg9
I0
sg10
(lp1556
(I10
g1538
tp1557
a(I11
g1545
tp1558
a(I12
g1552
tp1559
a(I14
S'dep'
p1560
tp1561
asg14
S'reason'
p1562
sg16
(lp1563
(I8
g1526
tp1564
asba(idtree_util
node
p1565
(dp1566
g8
I1
sg9
I0
sg10
(lp1567
sg14
S'why'
p1568
sg16
(lp1569
(I13
g1560
tp1570
asba(idtree_util
node
p1571
(dp1572
g8
I0
sba(idtree_util
node
p1573
(dp1574
g8
I0
sba(idtree_util
node
p1575
(dp1576
g8
I1
sg9
I0
sg10
(lp1577
sg14
S'and'
p1578
sg16
(lp1579
(I2
g1482
tp1580
asba(idtree_util
node
p1581
(dp1582
g8
I1
sg9
I0
sg10
(lp1583
(I22
S'dobj'
p1584
tp1585
asg14
S'begins'
p1586
sg16
(lp1587
(I2
g1484
tp1588
asba(idtree_util
node
p1589
(dp1590
g8
I0
sba(idtree_util
node
p1591
(dp1592
g8
I1
sg9
I0
sg10
(lp1593
sg14
S'half'
p1594
sg16
(lp1595
(I22
S'predet'
p1596
tp1597
asba(idtree_util
node
p1598
(dp1599
g8
I1
sg9
I0
sg10
(lp1600
sg14
S'a'
sg16
(lp1601
(I22
S'det'
p1602
tp1603
asba(idtree_util
node
p1604
(dp1605
g8
I1
sg9
I0
sg10
(lp1606
(I20
g1596
tp1607
a(I21
g1602
tp1608
a(I26
S'appos'
p1609
tp1610
a(I30
S'appos'
p1611
tp1612
asg14
S'league'
p1613
sg16
(lp1614
(I18
g1584
tp1615
asba(idtree_util
node
p1616
(dp1617
g8
I0
sba(idtree_util
node
p1618
(dp1619
g8
I1
sg9
I0
sg10
(lp1620
sg14
S'half'
p1621
sg16
(lp1622
(I26
S'predet'
p1623
tp1624
asba(idtree_util
node
p1625
(dp1626
g8
I1
sg9
I0
sg10
(lp1627
sg14
S'a'
sg16
(lp1628
(I26
S'det'
p1629
tp1630
asba(idtree_util
node
p1631
(dp1632
g8
I1
sg9
I0
sg10
(lp1633
(I24
g1623
tp1634
a(I25
g1629
tp1635
asg14
S'league'
p1636
sg16
(lp1637
(I22
g1609
tp1638
asba(idtree_util
node
p1639
(dp1640
g8
I0
sba(idtree_util
node
p1641
(dp1642
g8
I1
sg9
I0
sg10
(lp1643
sg14
S'half'
p1644
sg16
(lp1645
(I30
S'predet'
p1646
tp1647
asba(idtree_util
node
p1648
(dp1649
g8
I1
sg9
I0
sg10
(lp1650
sg14
S'a'
sg16
(lp1651
(I30
S'det'
p1652
tp1653
asba(idtree_util
node
p1654
(dp1655
g8
I1
sg9
I0
sg10
(lp1656
(I28
g1646
tp1657
a(I29
g1652
tp1658
a(I31
S'partmod'
p1659
tp1660
asg14
S'league'
p1661
sg16
(lp1662
(I22
g1611
tp1663
asba(idtree_util
node
p1664
(dp1665
g8
I1
sg9
I0
sg10
(lp1666
sg14
S'onward'
p1667
sg16
(lp1668
(I30
g1659
tp1669
asbasg254
S'the_charge_of_the_light_brigade'
p1670
sba(idtree_util
dtree
p1671
(dp1672
g4
(lp1673
(idtree_util
node
p1674
(dp1675
g8
I1
sg9
I0
sg10
(lp1676
(I7
S'root'
p1677
tp1678
asg14
S'ROOT'
p1679
sg16
(lp1680
sba(idtree_util
node
p1681
(dp1682
g8
I1
sg9
I0
sg10
(lp1683
(I3
S'pobj'
p1684
tp1685
asg14
S'In'
p1686
sg16
(lp1687
(I7
S'prep'
p1688
tp1689
asba(idtree_util
node
p1690
(dp1691
g8
I1
sg9
I0
sg10
(lp1692
sg14
S'this'
p1693
sg16
(lp1694
(I3
S'det'
p1695
tp1696
asba(idtree_util
node
p1697
(dp1698
g8
I1
sg9
I0
sg10
(lp1699
(I2
g1695
tp1700
asg14
S'play'
p1701
sg16
(lp1702
(I1
g1684
tp1703
asba(idtree_util
node
p1704
(dp1705
g8
I0
sba(idtree_util
node
p1706
(dp1707
g8
I1
sg9
I0
sg10
(lp1708
sg14
S'a'
sg16
(lp1709
(I6
S'det'
p1710
tp1711
asba(idtree_util
node
p1712
(dp1713
g8
I1
sg9
I0
sg10
(lp1714
(I5
g1710
tp1715
asg14
S'jester'
p1716
sg16
(lp1717
(I7
S'nsubj'
p1718
tp1719
asba(idtree_util
node
p1720
(dp1721
g8
I1
sg9
I0
sg10
(lp1722
(I1
g1688
tp1723
a(I6
g1718
tp1724
a(I8
S'dobj'
p1725
tp1726
a(I9
S'prep'
p1727
tp1728
a(I13
S'xcomp'
p1729
tp1730
asg14
S'disguises'
p1731
sg16
(lp1732
(I0
g1677
tp1733
asba(idtree_util
node
p1734
(dp1735
g8
I1
sg9
I0
sg10
(lp1736
sg14
S'himself'
p1737
sg16
(lp1738
(I7
g1725
tp1739
asba(idtree_util
node
p1740
(dp1741
g8
I1
sg9
I0
sg10
(lp1742
(I11
S'pobj'
p1743
tp1744
asg14
S'as'
p1745
sg16
(lp1746
(I7
g1727
tp1747
asba(idtree_util
node
p1748
(dp1749
g8
I1
sg9
I0
sg10
(lp1750
sg14
S'a'
sg16
(lp1751
(I11
S'det'
p1752
tp1753
asba(idtree_util
node
p1754
(dp1755
g8
I1
sg9
I0
sg10
(lp1756
(I10
g1752
tp1757
asg14
S'priest'
p1758
sg16
(lp1759
(I9
g1743
tp1760
asba(idtree_util
node
p1761
(dp1762
g8
I1
sg9
I0
sg10
(lp1763
sg14
S'to'
p1764
sg16
(lp1765
(I13
S'aux'
p1766
tp1767
asba(idtree_util
node
p1768
(dp1769
g8
I1
sg9
I0
sg10
(lp1770
(I12
g1766
tp1771
a(I15
S'dobj'
p1772
tp1773
asg14
S'mock'
p1774
sg16
(lp1775
(I7
g1729
tp1776
asba(idtree_util
node
p1777
(dp1778
g8
I1
sg9
I0
sg10
(lp1779
sg14
S'a'
sg16
(lp1780
(I15
S'det'
p1781
tp1782
asba(idtree_util
node
p1783
(dp1784
g8
I1
sg9
I0
sg10
(lp1785
(I14
g1781
tp1786
a(I18
S'rcmod'
p1787
tp1788
asg14
S'servant'
p1789
sg16
(lp1790
(I13
g1772
tp1791
asba(idtree_util
node
p1792
(dp1793
g8
I1
sg9
I0
sg10
(lp1794
sg14
S'who'
p1795
sg16
(lp1796
(I18
S'nsubj'
p1797
tp1798
asba(idtree_util
node
p1799
(dp1800
g8
I1
sg9
I0
sg10
(lp1801
sg14
S'had'
p1802
sg16
(lp1803
(I18
S'aux'
p1804
tp1805
asba(idtree_util
node
p1806
(dp1807
g8
I1
sg9
I0
sg10
(lp1808
(I16
g1797
tp1809
a(I17
g1804
tp1810
a(I19
S'dobj'
p1811
tp1812
a(I20
S'prep'
p1813
tp1814
asg14
S'chastised'
p1815
sg16
(lp1816
(I15
g1787
tp1817
asba(idtree_util
node
p1818
(dp1819
g8
I1
sg9
I0
sg10
(lp1820
sg14
S'him'
p1821
sg16
(lp1822
(I18
g1811
tp1823
asba(idtree_util
node
p1824
(dp1825
g8
I1
sg9
I0
sg10
(lp1826
(I24
S'pobj'
p1827
tp1828
asg14
S'for'
p1829
sg16
(lp1830
(I18
g1813
tp1831
asba(idtree_util
node
p1832
(dp1833
g8
I1
sg9
I0
sg10
(lp1834
sg14
S'loud'
p1835
sg16
(lp1836
(I24
S'amod'
p1837
tp1838
asba(idtree_util
node
p1839
(dp1840
g8
I0
sba(idtree_util
node
p1841
(dp1842
g8
I1
sg9
I0
sg10
(lp1843
sg14
S'drunk'
p1844
sg16
(lp1845
(I24
S'amod'
p1846
tp1847
asba(idtree_util
node
p1848
(dp1849
g8
I1
sg9
I0
sg10
(lp1850
(I21
g1837
tp1851
a(I23
g1846
tp1852
a(I25
S'prep'
p1853
tp1854
asg14
S'singing'
p1855
sg16
(lp1856
(I20
g1827
tp1857
asba(idtree_util
node
p1858
(dp1859
g8
I1
sg9
I0
sg10
(lp1860
(I26
S'pobj'
p1861
tp1862
asg14
S'at'
p1863
sg16
(lp1864
(I24
g1853
tp1865
asba(idtree_util
node
p1866
(dp1867
g8
I1
sg9
I0
sg10
(lp1868
sg14
S'night'
p1869
sg16
(lp1870
(I25
g1861
tp1871
asbasg254
S'twelfth_night'
p1872
sba(idtree_util
dtree
p1873
(dp1874
g4
(lp1875
(idtree_util
node
p1876
(dp1877
g8
I1
sg9
I0
sg10
(lp1878
(I3
S'root'
p1879
tp1880
asg14
S'ROOT'
p1881
sg16
(lp1882
sba(idtree_util
node
p1883
(dp1884
g8
I1
sg9
I0
sg10
(lp1885
sg14
S'He'
p1886
sg16
(lp1887
(I3
S'nsubj'
p1888
tp1889
asba(idtree_util
node
p1890
(dp1891
g8
I1
sg9
I0
sg10
(lp1892
sg14
S'first'
p1893
sg16
(lp1894
(I3
S'advmod'
p1895
tp1896
asba(idtree_util
node
p1897
(dp1898
g8
I1
sg9
I0
sg10
(lp1899
(I1
g1888
tp1900
a(I2
g1895
tp1901
a(I4
S'dobj'
p1902
tp1903
a(I5
S'prep'
p1904
tp1905
a(I14
S'cc'
p1906
tp1907
a(I17
S'conj'
p1908
tp1909
asg14
S'causes'
p1910
sg16
(lp1911
(I0
g1879
tp1912
asba(idtree_util
node
p1913
(dp1914
g8
I1
sg9
I0
sg10
(lp1915
sg14
S'trouble'
p1916
sg16
(lp1917
(I3
g1902
tp1918
asba(idtree_util
node
p1919
(dp1920
g8
I1
sg9
I0
sg10
(lp1921
(I6
S'pcomp'
p1922
tp1923
asg14
S'by'
p1924
sg16
(lp1925
(I3
g1904
tp1926
asba(idtree_util
node
p1927
(dp1928
g8
I1
sg9
I0
sg10
(lp1929
(I9
S'dobj'
p1930
tp1931
asg14
S'strangling'
p1932
sg16
(lp1933
(I5
g1922
tp1934
asba(idtree_util
node
p1935
(dp1936
g8
I1
sg9
I0
sg10
(lp1937
sg14
S'the'
p1938
sg16
(lp1939
(I9
S'det'
p1940
tp1941
asba(idtree_util
node
p1942
(dp1943
g8
I1
sg9
I0
sg10
(lp1944
sg14
S'boy'
p1945
sg16
(lp1946
(I9
S'nn'
p1947
tp1948
asba(idtree_util
node
p1949
(dp1950
g8
I1
sg9
I0
sg10
(lp1951
(I7
g1940
tp1952
a(I8
g1947
tp1953
a(I10
S'cc'
p1954
tp1955
a(I12
S'conj'
p1956
tp1957
asg14
S'William'
p1958
sg16
(lp1959
(I6
g1930
tp1960
asba(idtree_util
node
p1961
(dp1962
g8
I1
sg9
I0
sg10
(lp1963
sg14
S'and'
p1964
sg16
(lp1965
(I9
g1954
tp1966
asba(idtree_util
node
p1967
(dp1968
g8
I1
sg9
I0
sg10
(lp1969
sg14
S'framing'
p1970
sg16
(lp1971
(I12
S'nn'
p1972
tp1973
asba(idtree_util
node
p1974
(dp1975
g8
I1
sg9
I0
sg10
(lp1976
(I11
g1972
tp1977
asg14
S'Justine'
p1978
sg16
(lp1979
(I9
g1956
tp1980
asba(idtree_util
node
p1981
(dp1982
g8
I0
sba(idtree_util
node
p1983
(dp1984
g8
I1
sg9
I0
sg10
(lp1985
sg14
S'and'
p1986
sg16
(lp1987
(I3
g1906
tp1988
asba(idtree_util
node
p1989
(dp1990
g8
I1
sg9
I0
sg10
(lp1991
sg14
S'later'
p1992
sg16
(lp1993
(I17
S'advmod'
p1994
tp1995
asba(idtree_util
node
p1996
(dp1997
g8
I1
sg9
I0
sg10
(lp1998
sg14
S'he'
p1999
sg16
(lp2000
(I17
S'nsubj'
p2001
tp2002
asba(idtree_util
node
p2003
(dp2004
g8
I1
sg9
I0
sg10
(lp2005
(I15
g1994
tp2006
a(I16
g2001
tp2007
a(I19
S'dobj'
p2008
tp2009
a(I20
S'prep'
p2010
tp2011
a(I29
S'advcl'
p2012
tp2013
asg14
S'drives'
p2014
sg16
(lp2015
(I3
g1908
tp2016
asba(idtree_util
node
p2017
(dp2018
g8
I1
sg9
I0
sg10
(lp2019
sg14
S'a'
sg16
(lp2020
(I19
S'det'
p2021
tp2022
asba(idtree_util
node
p2023
(dp2024
g8
I1
sg9
I0
sg10
(lp2025
(I18
g2021
tp2026
asg14
S'man'
p2027
sg16
(lp2028
(I17
g2008
tp2029
asba(idtree_util
node
p2030
(dp2031
g8
I1
sg9
I0
sg10
(lp2032
(I21
S'pobj'
p2033
tp2034
asg14
S'to'
p2035
sg16
(lp2036
(I17
g2010
tp2037
asba(idtree_util
node
p2038
(dp2039
g8
I1
sg9
I0
sg10
(lp2040
(I22
S'prep'
p2041
tp2042
asg14
S'death'
p2043
sg16
(lp2044
(I20
g2033
tp2045
asba(idtree_util
node
p2046
(dp2047
g8
I1
sg9
I0
sg10
(lp2048
(I26
S'pobj'
p2049
tp2050
asg14
S'on'
p2051
sg16
(lp2052
(I21
g2041
tp2053
asba(idtree_util
node
p2054
(dp2055
g8
I1
sg9
I0
sg10
(lp2056
sg14
S'an'
p2057
sg16
(lp2058
(I26
S'det'
p2059
tp2060
asba(idtree_util
node
p2061
(dp2062
g8
I1
sg9
I0
sg10
(lp2063
sg14
S'Arctic'
p2064
sg16
(lp2065
(I26
S'nn'
p2066
tp2067
asba(idtree_util
node
p2068
(dp2069
g8
I1
sg9
I0
sg10
(lp2070
sg14
S'ice'
p2071
sg16
(lp2072
(I26
S'nn'
p2073
tp2074
asba(idtree_util
node
p2075
(dp2076
g8
I1
sg9
I0
sg10
(lp2077
(I23
g2059
tp2078
a(I24
g2066
tp2079
a(I25
g2073
tp2080
asg14
S'floe'
p2081
sg16
(lp2082
(I22
g2049
tp2083
asba(idtree_util
node
p2084
(dp2085
g8
I1
sg9
I0
sg10
(lp2086
sg14
S'while'
p2087
sg16
(lp2088
(I29
S'mark'
p2089
tp2090
asba(idtree_util
node
p2091
(dp2092
g8
I1
sg9
I0
sg10
(lp2093
sg14
S'Robert_Walton'
p2094
sg16
(lp2095
(I29
S'nsubj'
p2096
tp2097
asba(idtree_util
node
p2098
(dp2099
g8
I1
sg9
I0
sg10
(lp2100
(I27
g2089
tp2101
a(I28
g2096
tp2102
asg14
S'watches'
p2103
sg16
(lp2104
(I17
g2012
tp2105
asbasg254
S"frankenstein's_monster"
p2106
sba(idtree_util
dtree
p2107
(dp2108
g4
(lp2109
(idtree_util
node
p2110
(dp2111
g8
I1
sg9
I0
sg10
(lp2112
(I2
S'root'
p2113
tp2114
asg14
S'ROOT'
p2115
sg16
(lp2116
sba(idtree_util
node
p2117
(dp2118
g8
I1
sg9
I0
sg10
(lp2119
sg14
S'One'
p2120
sg16
(lp2121
(I2
S'nsubj'
p2122
tp2123
asba(idtree_util
node
p2124
(dp2125
g8
I1
sg9
I0
sg10
(lp2126
(I1
g2122
tp2127
a(I3
S'prep'
p2128
tp2129
a(I9
S'dobj'
p2130
tp2131
asg14
S'work'
p2132
sg16
(lp2133
(I0
g2113
tp2134
asba(idtree_util
node
p2135
(dp2136
g8
I1
sg9
I0
sg10
(lp2137
(I6
S'pobj'
p2138
tp2139
asg14
S'by'
p2140
sg16
(lp2141
(I2
g2128
tp2142
asba(idtree_util
node
p2143
(dp2144
g8
I1
sg9
I0
sg10
(lp2145
sg14
S'this'
p2146
sg16
(lp2147
(I6
S'det'
p2148
tp2149
asba(idtree_util
node
p2150
(dp2151
g8
I1
sg9
I0
sg10
(lp2152
sg14
S'man'
p2153
sg16
(lp2154
(I6
S'nn'
p2155
tp2156
asba(idtree_util
node
p2157
(dp2158
g8
I1
sg9
I0
sg10
(lp2159
(I4
g2148
tp2160
a(I5
g2155
tp2161
asg14
S'details'
p2162
sg16
(lp2163
(I3
g2138
tp2164
asba(idtree_util
node
p2165
(dp2166
g8
I1
sg9
I0
sg10
(lp2167
sg14
S'the'
p2168
sg16
(lp2169
(I9
S'det'
p2170
tp2171
asba(idtree_util
node
p2172
(dp2173
g8
I1
sg9
I0
sg10
(lp2174
sg14
S'terminal'
p2175
sg16
(lp2176
(I9
S'nn'
p2177
tp2178
asba(idtree_util
node
p2179
(dp2180
g8
I1
sg9
I0
sg10
(lp2181
(I7
g2170
tp2182
a(I8
g2177
tp2183
a(I10
S'prep'
p2184
tp2185
asg14
S'illness'
p2186
sg16
(lp2187
(I2
g2130
tp2188
asba(idtree_util
node
p2189
(dp2190
g8
I1
sg9
I0
sg10
(lp2191
(I12
S'pobj'
p2192
tp2193
asg14
S'of'
p2194
sg16
(lp2195
(I9
g2184
tp2196
asba(idtree_util
node
p2197
(dp2198
g8
I1
sg9
I0
sg10
(lp2199
sg14
S'a'
sg16
(lp2200
(I12
S'det'
p2201
tp2202
asba(idtree_util
node
p2203
(dp2204
g8
I1
sg9
I0
sg10
(lp2205
(I11
g2201
tp2206
a(I14
S'rcmod'
p2207
tp2208
asg14
S'man'
p2209
sg16
(lp2210
(I10
g2192
tp2211
asba(idtree_util
node
p2212
(dp2213
g8
I1
sg9
I0
sg10
(lp2214
sg14
S'who'
p2215
sg16
(lp2216
(I14
S'nsubj'
p2217
tp2218
asba(idtree_util
node
p2219
(dp2220
g8
I1
sg9
I0
sg10
(lp2221
(I13
g2217
tp2222
a(I15
S'dobj'
p2223
tp2224
a(I16
S'prep'
p2225
tp2226
a(I20
S'cc'
p2227
tp2228
a(I22
S'conj'
p2229
tp2230
asg14
S'injures'
p2231
sg16
(lp2232
(I12
g2207
tp2233
asba(idtree_util
node
p2234
(dp2235
g8
I1
sg9
I0
sg10
(lp2236
sg14
S'himself'
p2237
sg16
(lp2238
(I14
g2223
tp2239
asba(idtree_util
node
p2240
(dp2241
g8
I1
sg9
I0
sg10
(lp2242
(I17
S'pcomp'
p2243
tp2244
asg14
S'while'
p2245
sg16
(lp2246
(I14
g2225
tp2247
asba(idtree_util
node
p2248
(dp2249
g8
I1
sg9
I0
sg10
(lp2250
(I18
S'dobj'
p2251
tp2252
asg14
S'hanging'
p2253
sg16
(lp2254
(I16
g2243
tp2255
asba(idtree_util
node
p2256
(dp2257
g8
I1
sg9
I0
sg10
(lp2258
sg14
S'curtains'
p2259
sg16
(lp2260
(I17
g2251
tp2261
asba(idtree_util
node
p2262
(dp2263
g8
I0
sba(idtree_util
node
p2264
(dp2265
g8
I1
sg9
I0
sg10
(lp2266
sg14
S'and'
p2267
sg16
(lp2268
(I14
g2227
tp2269
asba(idtree_util
node
p2270
(dp2271
g8
I1
sg9
I0
sg10
(lp2272
sg14
S'is'
p2273
sg16
(lp2274
(I22
S'auxpass'
p2275
tp2276
asba(idtree_util
node
p2277
(dp2278
g8
I1
sg9
I0
sg10
(lp2279
(I21
g2275
tp2280
a(I23
S'dobj'
p2281
tp2282
asg14
S'called'
p2283
sg16
(lp2284
(I14
g2229
tp2285
asba(idtree_util
node
p2286
(dp2287
g8
I1
sg9
I0
sg10
(lp2288
sg14
S'The_Death_of_Ivan_Ilyich'
p2289
sg16
(lp2290
(I22
g2281
tp2291
asbasg254
S'leo_tolstoy'
p2292
sba(idtree_util
dtree
p2293
(dp2294
g4
(lp2295
(idtree_util
node
p2296
(dp2297
g8
I1
sg9
I0
sg10
(lp2298
(I9
S'root'
p2299
tp2300
asg14
S'ROOT'
p2301
sg16
(lp2302
sba(idtree_util
node
p2303
(dp2304
g8
I1
sg9
I0
sg10
(lp2305
(I2
S'pobj'
p2306
tp2307
asg14
S'In'
p2308
sg16
(lp2309
(I9
S'prep'
p2310
tp2311
asba(idtree_util
node
p2312
(dp2313
g8
I1
sg9
I0
sg10
(lp2314
(I3
S'prep'
p2315
tp2316
asg14
S'addition'
p2317
sg16
(lp2318
(I1
g2306
tp2319
asba(idtree_util
node
p2320
(dp2321
g8
I1
sg9
I0
sg10
(lp2322
(I4
S'pobj'
p2323
tp2324
asg14
S'to'
p2325
sg16
(lp2326
(I2
g2315
tp2327
asba(idtree_util
node
p2328
(dp2329
g8
I1
sg9
I0
sg10
(lp2330
(I5
S'cc'
p2331
tp2332
a(I6
S'conj'
p2333
tp2334
asg14
S'Galapagos'
p2335
sg16
(lp2336
(I3
g2323
tp2337
asba(idtree_util
node
p2338
(dp2339
g8
I1
sg9
I0
sg10
(lp2340
sg14
S'and'
p2341
sg16
(lp2342
(I4
g2331
tp2343
asba(idtree_util
node
p2344
(dp2345
g8
I1
sg9
I0
sg10
(lp2346
sg14
S'Bluebeard'
p2347
sg16
(lp2348
(I4
g2333
tp2349
asba(idtree_util
node
p2350
(dp2351
g8
I0
sba(idtree_util
node
p2352
(dp2353
g8
I1
sg9
I0
sg10
(lp2354
sg14
S'he'
p2355
sg16
(lp2356
(I9
S'nsubj'
p2357
tp2358
asba(idtree_util
node
p2359
(dp2360
g8
I1
sg9
I0
sg10
(lp2361
(I1
g2310
tp2362
a(I8
g2357
tp2363
a(I10
S'prep'
p2364
tp2365
a(I20
S'prep'
p2366
tp2367
asg14
S'wrote'
p2368
sg16
(lp2369
(I0
g2299
tp2370
asba(idtree_util
node
p2371
(dp2372
g8
I1
sg9
I0
sg10
(lp2373
(I13
S'pobj'
p2374
tp2375
asg14
S'about'
p2376
sg16
(lp2377
(I9
g2364
tp2378
asba(idtree_util
node
p2379
(dp2380
g8
I1
sg9
I0
sg10
(lp2381
sg14
S'Watergate'
p2382
sg16
(lp2383
(I13
S'nn'
p2384
tp2385
asba(idtree_util
node
p2386
(dp2387
g8
I1
sg9
I0
sg10
(lp2388
sg14
S'participant'
p2389
sg16
(lp2390
(I13
S'nn'
p2391
tp2392
asba(idtree_util
node
p2393
(dp2394
g8
I1
sg9
I0
sg10
(lp2395
(I11
g2384
tp2396
a(I12
g2391
tp2397
a(I14
S'prep'
p2398
tp2399
asg14
S'Walter_Starbuck'
p2400
sg16
(lp2401
(I10
g2374
tp2402
asba(idtree_util
node
p2403
(dp2404
g8
I1
sg9
I0
sg10
(lp2405
(I19
S'pobj'
p2406
tp2407
asg14
S'in'
p2408
sg16
(lp2409
(I13
g2398
tp2410
asba(idtree_util
node
p2411
(dp2412
g8
I1
sg9
I0
sg10
(lp2413
(I16
S'cc'
p2414
tp2415
a(I17
S'conj'
p2416
tp2417
asg14
S'Jailbird'
p2418
sg16
(lp2419
(I19
S'nn'
p2420
tp2421
asba(idtree_util
node
p2422
(dp2423
g8
I1
sg9
I0
sg10
(lp2424
sg14
S'and'
p2425
sg16
(lp2426
(I15
g2414
tp2427
asba(idtree_util
node
p2428
(dp2429
g8
I1
sg9
I0
sg10
(lp2430
sg14
S'Ghost_Shirt_Society'
p2431
sg16
(lp2432
(I15
g2416
tp2433
asba(idtree_util
node
p2434
(dp2435
g8
I1
sg9
I0
sg10
(lp2436
sg14
S'member'
p2437
sg16
(lp2438
(I19
S'nn'
p2439
tp2440
asba(idtree_util
node
p2441
(dp2442
g8
I1
sg9
I0
sg10
(lp2443
(I15
g2420
tp2444
a(I18
g2439
tp2445
asg14
S'Paul_Proteus'
p2446
sg16
(lp2447
(I14
g2406
tp2448
asba(idtree_util
node
p2449
(dp2450
g8
I1
sg9
I0
sg10
(lp2451
(I23
S'pobj'
p2452
tp2453
asg14
S'in'
p2454
sg16
(lp2455
(I9
g2366
tp2456
asba(idtree_util
node
p2457
(dp2458
g8
I1
sg9
I0
sg10
(lp2459
sg14
S'his'
p2460
sg16
(lp2461
(I23
S'poss'
p2462
tp2463
asba(idtree_util
node
p2464
(dp2465
g8
I1
sg9
I0
sg10
(lp2466
sg14
S'first'
p2467
sg16
(lp2468
(I23
S'amod'
p2469
tp2470
asba(idtree_util
node
p2471
(dp2472
g8
I1
sg9
I0
sg10
(lp2473
(I21
g2462
tp2474
a(I22
g2469
tp2475
a(I25
S'appos'
p2476
tp2477
asg14
S'novel'
p2478
sg16
(lp2479
(I20
g2452
tp2480
asba(idtree_util
node
p2481
(dp2482
g8
I0
sba(idtree_util
node
p2483
(dp2484
g8
I1
sg9
I0
sg10
(lp2485
sg14
S'Player_Piano'
p2486
sg16
(lp2487
(I23
g2476
tp2488
asbasg254
S'kurt_vonnegut'
p2489
sba.